; Function Attrs: nofree nounwind uwtable
define internal fastcc void @_help_format_msg() unnamed_addr #9 {
  %1 = load ptr, ptr getelementptr inbounds nuw (i8, ptr @fields, i64 8), align 8
  %.not9 = icmp eq ptr %1, null
  br i1 %.not9, label %._crit_edge, label %.lr.ph

.lr.ph:                                           ; preds = %0, %5
  %indvars.iv = phi i64 [ %indvars.iv.next, %5 ], [ 0, %0 ]
  %2 = phi ptr [ %8, %5 ], [ getelementptr inbounds nuw (i8, ptr @fields, i64 8), %0 ]
  %3 = and i64 %indvars.iv, 3
  %.not5 = icmp eq i64 %3, 0
  br i1 %.not5, label %4, label %.sink.split

4:                                                ; preds = %.lr.ph
  %.not6 = icmp eq i64 %indvars.iv, 0
  br i1 %.not6, label %5, label %.sink.split

.sink.split:                                      ; preds = %4, %.lr.ph
  %.sink = phi i32 [ 32, %.lr.ph ], [ 10, %4 ]
  %putchar7 = tail call i32 @putchar(i32 %.sink)
  br label %5

5:                                                ; preds = %.sink.split, %4
  %6 = load ptr, ptr %2, align 8
  %7 = tail call i32 (ptr, ...) @printf(ptr noundef nonnull dereferenceable(1) @.str.48, ptr noundef %6)
  %indvars.iv.next = add nuw nsw i64 %indvars.iv, 1
  %8 = getelementptr inbounds nuw [0 x %struct.print_field], ptr @fields, i64 0, i64 %indvars.iv.next, i32 1
  %9 = load ptr, ptr %8, align 8
  %.not = icmp eq ptr %9, null
  br i1 %.not, label %._crit_edge, label %.lr.ph, !llvm.loop !14

._crit_edge:                                      ; preds = %5, %0
  %putchar = tail call i32 @putchar(i32 10)
  ret void
}